; Function Attrs: mustprogress uwtable
define dso_local void @_ZN21cmCTestGenericHandler9SetOptionERKNSt7__cxx1112basic_stringIcSt11char_traitsIcESaIcEEE7cmValue(ptr noundef nonnull align 8 dereferenceable(284) %0, ptr noundef nonnull align 8 dereferenceable(32) %1, ptr %2) local_unnamed_addr #7 align 2 {
  %4 = getelementptr inbounds i8, ptr %0, i64 40
  %.not.i = icmp eq ptr %2, null
  br i1 %.not.i, label %5, label %9

5:                                                ; preds = %3
  %6 = tail call { ptr, ptr } @_ZNSt8_Rb_treeINSt7__cxx1112basic_stringIcSt11char_traitsIcESaIcEEESt4pairIKS5_S5_ESt10_Select1stIS8_ESt4lessIS5_ESaIS8_EE11equal_rangeERS7_(ptr noundef nonnull align 8 dereferenceable(48) %4, ptr noundef nonnull align 8 dereferenceable(32) %1)
  %7 = extractvalue { ptr, ptr } %6, 0
  %8 = extractvalue { ptr, ptr } %6, 1
  tail call void @_ZNSt8_Rb_treeINSt7__cxx1112basic_stringIcSt11char_traitsIcESaIcEEESt4pairIKS5_S5_ESt10_Select1stIS8_ESt4lessIS5_ESaIS8_EE12_M_erase_auxESt23_Rb_tree_const_iteratorIS8_ESG_(ptr noundef nonnull align 8 dereferenceable(48) %4, ptr %7, ptr %8)
  br label %_ZN12_GLOBAL__N_111SetMapValueERSt3mapINSt7__cxx1112basic_stringIcSt11char_traitsIcESaIcEEES6_St4lessIS6_ESaISt4pairIKS6_S6_EEERSA_7cmValue.exit

9:                                                ; preds = %3
  %10 = tail call noundef nonnull align 8 dereferenceable(32) ptr @_ZNSt3mapINSt7__cxx1112basic_stringIcSt11char_traitsIcESaIcEEES5_St4lessIS5_ESaISt4pairIKS5_S5_EEEixERS9_(ptr noundef nonnull align 8 dereferenceable(48) %4, ptr noundef nonnull align 8 dereferenceable(32) %1)
  %11 = tail call noundef nonnull align 8 dereferenceable(32) ptr @_ZNSt7__cxx1112basic_stringIcSt11char_traitsIcESaIcEEaSERKS4_(ptr noundef nonnull align 8 dereferenceable(32) %10, ptr noundef nonnull align 8 dereferenceable(32) %2)
  br label %_ZN12_GLOBAL__N_111SetMapValueERSt3mapINSt7__cxx1112basic_stringIcSt11char_traitsIcESaIcEEES6_St4lessIS6_ESaISt4pairIKS6_S6_EEERSA_7cmValue.exit

_ZN12_GLOBAL__N_111SetMapValueERSt3mapINSt7__cxx1112basic_stringIcSt11char_traitsIcESaIcEEES6_St4lessIS6_ESaISt4pairIKS6_S6_EEERSA_7cmValue.exit: ; preds = %5, %9
  ret void
}